target datalayout = "e-m:e-p270:32:32-p271:32:32-p272:64:64-i64:64-i128:128-f80:128-n8:16:32:64-S128"
target triple = "x86_64-pc-linux-gnu"

; Function Attrs: nounwind sspstrong uwtable
define dso_local void @qmp_blockdev_mirror(ptr noundef %0, ptr noundef %1, ptr noundef %2, ptr noundef %3, i32 noundef %4, i1 noundef zeroext %5, i64 noundef %6, i1 noundef zeroext %7, i32 noundef %8, i1 noundef zeroext %9, i64 noundef %10, i1 noundef zeroext %11, i32 noundef %12, i1 noundef zeroext %13, i32 noundef %14, ptr noundef %15, i1 noundef zeroext %16, i32 noundef %17, i1 noundef zeroext %18, i1 noundef zeroext %19, i1 noundef zeroext %20, i1 noundef zeroext %21, ptr noundef %22) #0 {
  %24 = alloca ptr, align 8
  %25 = alloca ptr, align 8
  %26 = alloca ptr, align 8
  %27 = alloca ptr, align 8
  %28 = alloca i32, align 4
  %29 = alloca i8, align 1
  %30 = alloca i64, align 8
  %31 = alloca i8, align 1
  %32 = alloca i32, align 4
  %33 = alloca i8, align 1
  %34 = alloca i64, align 8
  %35 = alloca i8, align 1
  %36 = alloca i32, align 4
  %37 = alloca i8, align 1
  %38 = alloca i32, align 4
  %39 = alloca ptr, align 8
  %40 = alloca i8, align 1
  %41 = alloca i32, align 4
  %42 = alloca i8, align 1
  %43 = alloca i8, align 1
  %44 = alloca i8, align 1
  %45 = alloca i8, align 1
  %46 = alloca ptr, align 8
  %47 = alloca ptr, align 8
  %48 = alloca ptr, align 8
  %49 = alloca ptr, align 8
  %50 = alloca i32, align 4
  %51 = alloca i8, align 1
  %52 = alloca i32, align 4
  %53 = alloca i32, align 4
  store ptr %0, ptr %24, align 8
  store ptr %1, ptr %25, align 8
  store ptr %2, ptr %26, align 8
  store ptr %3, ptr %27, align 8
  store i32 %4, ptr %28, align 4
  %54 = zext i1 %5 to i8
  store i8 %54, ptr %29, align 1
  store i64 %6, ptr %30, align 8
  %55 = zext i1 %7 to i8
  store i8 %55, ptr %31, align 1
  store i32 %8, ptr %32, align 4
  %56 = zext i1 %9 to i8
  store i8 %56, ptr %33, align 1
  store i64 %10, ptr %34, align 8
  %57 = zext i1 %11 to i8
  store i8 %57, ptr %35, align 1
  store i32 %12, ptr %36, align 4
  %58 = zext i1 %13 to i8
  store i8 %58, ptr %37, align 1
  store i32 %14, ptr %38, align 4
  store ptr %15, ptr %39, align 8
  %59 = zext i1 %16 to i8
  store i8 %59, ptr %40, align 1
  store i32 %17, ptr %41, align 4
  %60 = zext i1 %18 to i8
  store i8 %60, ptr %42, align 1
  %61 = zext i1 %19 to i8
  store i8 %61, ptr %43, align 1
  %62 = zext i1 %20 to i8
  store i8 %62, ptr %44, align 1
  %63 = zext i1 %21 to i8
  store i8 %63, ptr %45, align 1
  store ptr %22, ptr %46, align 8
  call void @llvm.lifetime.start.p0(i64 8, ptr %47) #16
  store ptr null, ptr %47, align 8, !annotation !4
  call void @llvm.lifetime.start.p0(i64 8, ptr %48) #16
  store ptr null, ptr %48, align 8, !annotation !4
  call void @llvm.lifetime.start.p0(i64 8, ptr %49) #16
  store ptr null, ptr %49, align 8, !annotation !4
  call void @llvm.lifetime.start.p0(i64 4, ptr %50) #16
  store i32 2, ptr %50, align 4
  call void @llvm.lifetime.start.p0(i64 1, ptr %51) #16
  store i8 0, ptr %51, align 1, !annotation !4
  call void @llvm.lifetime.start.p0(i64 4, ptr %52) #16
  store i32 0, ptr %52, align 4, !annotation !4
  %64 = load ptr, ptr %25, align 8
  %65 = load ptr, ptr %46, align 8
  %66 = call ptr @qmp_get_root_bs(ptr noundef %64, ptr noundef %65)
  store ptr %66, ptr %47, align 8
  %67 = load ptr, ptr %47, align 8
  %68 = icmp ne ptr %67, null
  br i1 %68, label %70, label %69

69:                                               ; preds = %23
  store i32 1, ptr %53, align 4
  br label %128

70:                                               ; preds = %23
  %71 = load ptr, ptr %26, align 8
  %72 = load ptr, ptr %26, align 8
  %73 = load ptr, ptr %46, align 8
  %74 = call ptr @bdrv_lookup_bs(ptr noundef %71, ptr noundef %72, ptr noundef %73)
  store ptr %74, ptr %48, align 8
  %75 = load ptr, ptr %48, align 8
  %76 = icmp ne ptr %75, null
  br i1 %76, label %78, label %77

77:                                               ; preds = %70
  store i32 1, ptr %53, align 4
  br label %128

78:                                               ; preds = %70
  %79 = load i32, ptr %28, align 4
  %80 = icmp eq i32 %79, 1
  %81 = zext i1 %80 to i8
  store i8 %81, ptr %51, align 1
  %82 = load ptr, ptr %47, align 8
  %83 = call ptr @bdrv_get_aio_context(ptr noundef %82)
  store ptr %83, ptr %49, align 8
  %84 = load ptr, ptr %48, align 8
  %85 = load ptr, ptr %49, align 8
  %86 = load ptr, ptr %46, align 8
  %87 = call i32 @bdrv_try_change_aio_context(ptr noundef %84, ptr noundef %85, ptr noundef null, ptr noundef %86)
  store i32 %87, ptr %52, align 4
  %88 = load i32, ptr %52, align 4
  %89 = icmp slt i32 %88, 0
  br i1 %89, label %90, label %91

90:                                               ; preds = %78
  store i32 1, ptr %53, align 4
  br label %128

91:                                               ; preds = %78
  %92 = load ptr, ptr %24, align 8
  %93 = load ptr, ptr %47, align 8
  %94 = load ptr, ptr %48, align 8
  %95 = load ptr, ptr %27, align 8
  %96 = load i32, ptr %28, align 4
  %97 = load i32, ptr %50, align 4
  %98 = load i8, ptr %51, align 1, !range !7, !noundef !8
  %99 = trunc i8 %98 to i1
  %100 = load i8, ptr %29, align 1, !range !7, !noundef !8
  %101 = trunc i8 %100 to i1
  %102 = load i64, ptr %30, align 8
  %103 = load i8, ptr %31, align 1, !range !7, !noundef !8
  %104 = trunc i8 %103 to i1
  %105 = load i32, ptr %32, align 4
  %106 = load i8, ptr %33, align 1, !range !7, !noundef !8
  %107 = trunc i8 %106 to i1
  %108 = load i64, ptr %34, align 8
  %109 = load i8, ptr %35, align 1, !range !7, !noundef !8
  %110 = trunc i8 %109 to i1
  %111 = load i32, ptr %36, align 4
  %112 = load i8, ptr %37, align 1, !range !7, !noundef !8
  %113 = trunc i8 %112 to i1
  %114 = load i32, ptr %38, align 4
  %115 = load ptr, ptr %39, align 8
  %116 = load i8, ptr %40, align 1, !range !7, !noundef !8
  %117 = trunc i8 %116 to i1
  %118 = load i32, ptr %41, align 4
  %119 = load i8, ptr %42, align 1, !range !7, !noundef !8
  %120 = trunc i8 %119 to i1
  %121 = load i8, ptr %43, align 1, !range !7, !noundef !8
  %122 = trunc i8 %121 to i1
  %123 = load i8, ptr %44, align 1, !range !7, !noundef !8
  %124 = trunc i8 %123 to i1
  %125 = load i8, ptr %45, align 1, !range !7, !noundef !8
  %126 = trunc i8 %125 to i1
  %127 = load ptr, ptr %46, align 8
  call void @blockdev_mirror_common(ptr noundef %92, ptr noundef %93, ptr noundef %94, ptr noundef %95, i32 noundef %96, i32 noundef %97, i1 noundef zeroext %99, i1 noundef zeroext %101, i64 noundef %102, i1 noundef zeroext %104, i32 noundef %105, i1 noundef zeroext %107, i64 noundef %108, i1 noundef zeroext %110, i32 noundef %111, i1 noundef zeroext %113, i32 noundef %114, i1 noundef zeroext true, i1 noundef zeroext true, ptr noundef %115, i1 noundef zeroext %117, i32 noundef %118, i1 noundef zeroext %120, i1 noundef zeroext %122, i1 noundef zeroext %124, i1 noundef zeroext %126, ptr noundef %127)
  store i32 0, ptr %53, align 4
  br label %128

128:                                              ; preds = %91, %90, %77, %69
  call void @llvm.lifetime.end.p0(i64 4, ptr %52) #16
  call void @llvm.lifetime.end.p0(i64 1, ptr %51) #16
  call void @llvm.lifetime.end.p0(i64 4, ptr %50) #16
  call void @llvm.lifetime.end.p0(i64 8, ptr %49) #16
  call void @llvm.lifetime.end.p0(i64 8, ptr %48) #16
  call void @llvm.lifetime.end.p0(i64 8, ptr %47) #16
  %129 = load i32, ptr %53, align 4
  switch i32 %129, label %131 [
    i32 0, label %130
    i32 1, label %130
  ]

130:                                              ; preds = %128, %128
  ret void

131:                                              ; preds = %128
  unreachable
}