; Function Attrs: nounwind sspstrong uwtable
define dso_local void @qmp_blockdev_mirror(ptr noundef %0, ptr noundef %1, ptr noundef %2, ptr noundef %3, i32 noundef %4, i1 noundef zeroext %5, i64 noundef %6, i1 noundef zeroext %7, i32 noundef %8, i1 noundef zeroext %9, i64 noundef %10, i1 noundef zeroext %11, i32 noundef %12, i1 noundef zeroext %13, i32 noundef %14, ptr noundef %15, i1 noundef zeroext %16, i32 noundef %17, i1 noundef zeroext %18, i1 noundef zeroext %19, i1 noundef zeroext %20, i1 noundef zeroext %21, ptr noundef %22) local_unnamed_addr #0 {
  %24 = tail call fastcc ptr @qmp_get_root_bs(ptr noundef %1, ptr noundef %22)
  %.not = icmp eq ptr %24, null
  br i1 %.not, label %33, label %25

25:                                               ; preds = %23
  %26 = tail call ptr @bdrv_lookup_bs(ptr noundef %2, ptr noundef %2, ptr noundef %22) #14
  %.not38 = icmp eq ptr %26, null
  br i1 %.not38, label %33, label %27

27:                                               ; preds = %25
  %28 = tail call ptr @bdrv_get_aio_context(ptr noundef nonnull %24) #14
  %29 = tail call i32 @bdrv_try_change_aio_context(ptr noundef nonnull %26, ptr noundef %28, ptr noundef null, ptr noundef %22) #14
  %30 = icmp slt i32 %29, 0
  br i1 %30, label %33, label %31

31:                                               ; preds = %27
  %32 = icmp eq i32 %4, 1
  tail call fastcc void @blockdev_mirror_common(ptr noundef %0, ptr noundef %24, ptr noundef %26, ptr noundef %3, i32 noundef %4, i32 noundef 2, i1 noundef zeroext %32, i1 noundef zeroext %5, i64 noundef %6, i1 noundef zeroext %7, i32 noundef %8, i1 noundef zeroext %9, i64 noundef %10, i1 noundef zeroext %11, i32 noundef %12, i1 noundef zeroext %13, i32 noundef %14, i1 noundef zeroext true, i1 noundef zeroext true, ptr noundef %15, i1 noundef zeroext %16, i32 noundef %17, i1 noundef zeroext %18, i1 noundef zeroext %19, i1 noundef zeroext %20, i1 noundef zeroext %21, ptr noundef %22)
  br label %33

33:                                               ; preds = %27, %25, %23, %31
  ret void
}